target datalayout = "e-m:e-p270:32:32-p271:32:32-p272:64:64-i64:64-i128:128-f80:128-n8:16:32:64-S128"
target triple = "x86_64-pc-linux-gnu"

%struct.cinfo_tag = type { i32, i32, i32, i32, i32, i32, i32, i32, i32, i32, i32, i32, i32, i32, i32, i32, i32, i64, i64, i64 }
%struct.cube = type { i8, i8, i16, i16, i16, ptr, ptr, ptr, ptr }

@g_CoverInfo = external global %struct.cinfo_tag, align 8
@.str = private unnamed_addr constant [83 x i8] c"Warning! The recorded number of literals (%d) differs from the actual number (%d)\0A\00", align 1
@.str.6 = private unnamed_addr constant [2 x i8] c"w\00", align 1
@stderr = external global ptr, align 8
@.str.7 = private unnamed_addr constant [31 x i8] c"\0A\0ACannot open the output file\0A\00", align 1
@.str.8 = private unnamed_addr constant [49 x i8] c"# EXORCISM-4 output for command line arguments: \00", align 1
@.str.9 = private unnamed_addr constant [15 x i8] c"\22-Q %d -V %d\22\0A\00", align 1
@.str.10 = private unnamed_addr constant [28 x i8] c"# Minimization performed %s\00", align 1
@.str.11 = private unnamed_addr constant [23 x i8] c"# Initial statistics: \00", align 1
@.str.12 = private unnamed_addr constant [39 x i8] c"Cubes = %d  Literals = %d  QCost = %d\0A\00", align 1
@.str.13 = private unnamed_addr constant [23 x i8] c"# Final   statistics: \00", align 1
@.str.14 = private unnamed_addr constant [47 x i8] c"# File reading and reordering time = %.2f sec\0A\00", align 1
@.str.15 = private unnamed_addr constant [47 x i8] c"# Starting cover generation time   = %.2f sec\0A\00", align 1
@.str.16 = private unnamed_addr constant [47 x i8] c"# Pure ESOP minimization time      = %.2f sec\0A\00", align 1
@.str.17 = private unnamed_addr constant [7 x i8] c".i %d\0A\00", align 1
@.str.18 = private unnamed_addr constant [7 x i8] c".o %d\0A\00", align 1
@.str.19 = private unnamed_addr constant [7 x i8] c".p %d\0A\00", align 1
@.str.20 = private unnamed_addr constant [12 x i8] c".type esop\0A\00", align 1
@.str.21 = private unnamed_addr constant [4 x i8] c".e\0A\00", align 1

; Function Attrs: inlinehint nounwind uwtable
define internal float @TICKS_TO_SECONDS(i64 noundef %0) #4 {
  %2 = alloca i64, align 8
  store i64 %0, ptr %2, align 8, !tbaa !45
  %3 = load i64, ptr %2, align 8, !tbaa !45
  %4 = sitofp i64 %3 to float
  %5 = fdiv float %4, 1.000000e+06
  ret float %5
}

; Function Attrs: nounwind uwtable
define i32 @CountQCost() #0 {
  %1 = alloca ptr, align 8
  %2 = alloca i32, align 4
  %3 = alloca i32, align 4
  call void @llvm.lifetime.start.p0(i64 8, ptr %1) #5
  call void @llvm.lifetime.start.p0(i64 4, ptr %2) #5
  store i32 0, ptr %2, align 4, !tbaa !3
  call void @llvm.lifetime.start.p0(i64 4, ptr %3) #5
  store i32 0, ptr %3, align 4, !tbaa !3
  %4 = call ptr (...) @IterCubeSetStart()
  store ptr %4, ptr %1, align 8, !tbaa !7
  br label %5

5:                                                ; preds = %19, %0
  %6 = load ptr, ptr %1, align 8, !tbaa !7
  %7 = icmp ne ptr %6, null
  br i1 %7, label %8, label %21

8:                                                ; preds = %5
  %9 = load ptr, ptr %1, align 8, !tbaa !7
  %10 = getelementptr inbounds nuw %struct.cube, ptr %9, i32 0, i32 4
  %11 = load i16, ptr %10, align 2, !tbaa !21
  %12 = sext i16 %11 to i32
  %13 = load i32, ptr %3, align 4, !tbaa !3
  %14 = add nsw i32 %13, %12
  store i32 %14, ptr %3, align 4, !tbaa !3
  %15 = load ptr, ptr %1, align 8, !tbaa !7
  %16 = call i32 @ComputeQCostBits(ptr noundef %15)
  %17 = load i32, ptr %2, align 4, !tbaa !3
  %18 = add nsw i32 %17, %16
  store i32 %18, ptr %2, align 4, !tbaa !3
  br label %19

19:                                               ; preds = %8
  %20 = call ptr (...) @IterCubeSetNext()
  store ptr %20, ptr %1, align 8, !tbaa !7
  br label %5, !llvm.loop !22

21:                                               ; preds = %5
  %22 = load i32, ptr %2, align 4, !tbaa !3
  call void @llvm.lifetime.end.p0(i64 4, ptr %3) #5
  call void @llvm.lifetime.end.p0(i64 4, ptr %2) #5
  call void @llvm.lifetime.end.p0(i64 8, ptr %1) #5
  ret i32 %22
}

; Function Attrs: nounwind uwtable
define i32 @CountLiteralsCheck() #0 {
  %1 = alloca ptr, align 8
  %2 = alloca i32, align 4
  %3 = alloca i32, align 4
  %4 = alloca i32, align 4
  %5 = alloca i32, align 4
  call void @llvm.lifetime.start.p0(i64 8, ptr %1) #5
  call void @llvm.lifetime.start.p0(i64 4, ptr %2) #5
  call void @llvm.lifetime.start.p0(i64 4, ptr %3) #5
  call void @llvm.lifetime.start.p0(i64 4, ptr %4) #5
  store i32 0, ptr %4, align 4, !tbaa !3
  call void @llvm.lifetime.start.p0(i64 4, ptr %5) #5
  store i32 0, ptr %5, align 4, !tbaa !3
  %6 = call ptr (...) @IterCubeSetStart()
  store ptr %6, ptr %1, align 8, !tbaa !7
  br label %7

7:                                                ; preds = %47, %0
  %8 = load ptr, ptr %1, align 8, !tbaa !7
  %9 = icmp ne ptr %8, null
  br i1 %9, label %10, label %49

10:                                               ; preds = %7
  %11 = load ptr, ptr %1, align 8, !tbaa !7
  %12 = getelementptr inbounds nuw %struct.cube, ptr %11, i32 0, i32 2
  %13 = load i16, ptr %12, align 2, !tbaa !10
  %14 = sext i16 %13 to i32
  %15 = load i32, ptr %5, align 4, !tbaa !3
  %16 = add nsw i32 %15, %14
  store i32 %16, ptr %5, align 4, !tbaa !3
  store i32 0, ptr %3, align 4, !tbaa !3
  br label %17

17:                                               ; preds = %43, %10
  %18 = load i32, ptr %3, align 4, !tbaa !3
  %19 = load i32, ptr @g_CoverInfo, align 8, !tbaa !16
  %20 = icmp slt i32 %18, %19
  br i1 %20, label %21, label %46

21:                                               ; preds = %17
  %22 = load ptr, ptr %1, align 8, !tbaa !7
  %23 = load i32, ptr %3, align 4, !tbaa !3
  %24 = call i32 @GetVar(ptr noundef %22, i32 noundef %23)
  store i32 %24, ptr %2, align 4, !tbaa !3
  %25 = load i32, ptr %2, align 4, !tbaa !3
  %26 = icmp eq i32 %25, 1
  br i1 %26, label %27, label %30

27:                                               ; preds = %21
  %28 = load i32, ptr %4, align 4, !tbaa !3
  %29 = add nsw i32 %28, 1
  store i32 %29, ptr %4, align 4, !tbaa !3
  br label %42

30:                                               ; preds = %21
  %31 = load i32, ptr %2, align 4, !tbaa !3
  %32 = icmp eq i32 %31, 2
  br i1 %32, label %33, label %36

33:                                               ; preds = %30
  %34 = load i32, ptr %4, align 4, !tbaa !3
  %35 = add nsw i32 %34, 1
  store i32 %35, ptr %4, align 4, !tbaa !3
  br label %41

36:                                               ; preds = %30
  %37 = load i32, ptr %2, align 4, !tbaa !3
  %38 = icmp ne i32 %37, 3
  br i1 %38, label %39, label %40

39:                                               ; preds = %36
  br label %40

40:                                               ; preds = %39, %36
  br label %41

41:                                               ; preds = %40, %33
  br label %42

42:                                               ; preds = %41, %27
  br label %43

43:                                               ; preds = %42
  %44 = load i32, ptr %3, align 4, !tbaa !3
  %45 = add nsw i32 %44, 1
  store i32 %45, ptr %3, align 4, !tbaa !3
  br label %17, !llvm.loop !19

46:                                               ; preds = %17
  br label %47

47:                                               ; preds = %46
  %48 = call ptr (...) @IterCubeSetNext()
  store ptr %48, ptr %1, align 8, !tbaa !7
  br label %7, !llvm.loop !20

49:                                               ; preds = %7
  %50 = load i32, ptr %5, align 4, !tbaa !3
  %51 = load i32, ptr %4, align 4, !tbaa !3
  %52 = icmp ne i32 %50, %51
  br i1 %52, label %53, label %57

53:                                               ; preds = %49
  %54 = load i32, ptr %5, align 4, !tbaa !3
  %55 = load i32, ptr %4, align 4, !tbaa !3
  %56 = call i32 (ptr, ...) @printf(ptr noundef @.str, i32 noundef %54, i32 noundef %55)
  br label %57

57:                                               ; preds = %53, %49
  %58 = load i32, ptr %4, align 4, !tbaa !3
  call void @llvm.lifetime.end.p0(i64 4, ptr %5) #5
  call void @llvm.lifetime.end.p0(i64 4, ptr %4) #5
  call void @llvm.lifetime.end.p0(i64 4, ptr %3) #5
  call void @llvm.lifetime.end.p0(i64 4, ptr %2) #5
  call void @llvm.lifetime.end.p0(i64 8, ptr %1) #5
  ret i32 %58
}

; Function Attrs: nounwind uwtable
define i32 @WriteResultIntoFile(ptr noundef %0) #0 {
  %2 = alloca i32, align 4
  %3 = alloca ptr, align 8
  %4 = alloca ptr, align 8
  %5 = alloca i64, align 8
  %6 = alloca ptr, align 8
  %7 = alloca i32, align 4
  store ptr %0, ptr %3, align 8, !tbaa !32
  call void @llvm.lifetime.start.p0(i64 8, ptr %4) #5
  call void @llvm.lifetime.start.p0(i64 8, ptr %5) #5
  call void @llvm.lifetime.start.p0(i64 8, ptr %6) #5
  %8 = load ptr, ptr %3, align 8, !tbaa !32
  %9 = call noalias ptr @fopen(ptr noundef %8, ptr noundef @.str.6)
  store ptr %9, ptr %4, align 8, !tbaa !23
  %10 = load ptr, ptr %4, align 8, !tbaa !23
  %11 = icmp eq ptr %10, null
  br i1 %11, label %12, label %15

12:                                               ; preds = %1
  %13 = load ptr, ptr @stderr, align 8, !tbaa !23
  %14 = call i32 (ptr, ptr, ...) @fprintf(ptr noundef %13, ptr noundef @.str.7) #5
  store i32 1, ptr %2, align 4
  store i32 1, ptr %7, align 4
  br label %75

15:                                               ; preds = %1
  %16 = call i64 @time(ptr noundef %5) #5
  %17 = call ptr @localtime(ptr noundef %5) #5
  %18 = call ptr @asctime(ptr noundef %17) #5
  store ptr %18, ptr %6, align 8, !tbaa !32
  %19 = call i32 @CountLiteralsCheck()
  store i32 %19, ptr getelementptr inbounds nuw (%struct.cinfo_tag, ptr @g_CoverInfo, i32 0, i32 9), align 4, !tbaa !34
  %20 = call i32 @CountQCost()
  store i32 %20, ptr getelementptr inbounds nuw (%struct.cinfo_tag, ptr @g_CoverInfo, i32 0, i32 11), align 4, !tbaa !35
  %21 = load ptr, ptr %4, align 8, !tbaa !23
  %22 = call i32 (ptr, ptr, ...) @fprintf(ptr noundef %21, ptr noundef @.str.8) #5
  %23 = load ptr, ptr %4, align 8, !tbaa !23
  %24 = load i32, ptr getelementptr inbounds nuw (%struct.cinfo_tag, ptr @g_CoverInfo, i32 0, i32 14), align 8, !tbaa !36
  %25 = load i32, ptr getelementptr inbounds nuw (%struct.cinfo_tag, ptr @g_CoverInfo, i32 0, i32 13), align 4, !tbaa !37
  %26 = call i32 (ptr, ptr, ...) @fprintf(ptr noundef %23, ptr noundef @.str.9, i32 noundef %24, i32 noundef %25) #5
  %27 = load ptr, ptr %4, align 8, !tbaa !23
  %28 = load ptr, ptr %6, align 8, !tbaa !32
  %29 = call i32 (ptr, ptr, ...) @fprintf(ptr noundef %27, ptr noundef @.str.10, ptr noundef %28) #5
  %30 = load ptr, ptr %4, align 8, !tbaa !23
  %31 = call i32 (ptr, ptr, ...) @fprintf(ptr noundef %30, ptr noundef @.str.11) #5
  %32 = load ptr, ptr %4, align 8, !tbaa !23
  %33 = load i32, ptr getelementptr inbounds nuw (%struct.cinfo_tag, ptr @g_CoverInfo, i32 0, i32 5), align 4, !tbaa !38
  %34 = load i32, ptr getelementptr inbounds nuw (%struct.cinfo_tag, ptr @g_CoverInfo, i32 0, i32 8), align 8, !tbaa !39
  %35 = load i32, ptr getelementptr inbounds nuw (%struct.cinfo_tag, ptr @g_CoverInfo, i32 0, i32 10), align 8, !tbaa !40
  %36 = call i32 (ptr, ptr, ...) @fprintf(ptr noundef %32, ptr noundef @.str.12, i32 noundef %33, i32 noundef %34, i32 noundef %35) #5
  %37 = load ptr, ptr %4, align 8, !tbaa !23
  %38 = call i32 (ptr, ptr, ...) @fprintf(ptr noundef %37, ptr noundef @.str.13) #5
  %39 = load ptr, ptr %4, align 8, !tbaa !23
  %40 = load i32, ptr getelementptr inbounds nuw (%struct.cinfo_tag, ptr @g_CoverInfo, i32 0, i32 6), align 8, !tbaa !41
  %41 = load i32, ptr getelementptr inbounds nuw (%struct.cinfo_tag, ptr @g_CoverInfo, i32 0, i32 9), align 4, !tbaa !34
  %42 = load i32, ptr getelementptr inbounds nuw (%struct.cinfo_tag, ptr @g_CoverInfo, i32 0, i32 11), align 4, !tbaa !35
  %43 = call i32 (ptr, ptr, ...) @fprintf(ptr noundef %39, ptr noundef @.str.12, i32 noundef %40, i32 noundef %41, i32 noundef %42) #5
  %44 = load ptr, ptr %4, align 8, !tbaa !23
  %45 = load i64, ptr getelementptr inbounds nuw (%struct.cinfo_tag, ptr @g_CoverInfo, i32 0, i32 17), align 8, !tbaa !42
  %46 = call float @TICKS_TO_SECONDS(i64 noundef %45)
  %47 = fpext float %46 to double
  %48 = call i32 (ptr, ptr, ...) @fprintf(ptr noundef %44, ptr noundef @.str.14, double noundef %47) #5
  %49 = load ptr, ptr %4, align 8, !tbaa !23
  %50 = load i64, ptr getelementptr inbounds nuw (%struct.cinfo_tag, ptr @g_CoverInfo, i32 0, i32 18), align 8, !tbaa !43
  %51 = call float @TICKS_TO_SECONDS(i64 noundef %50)
  %52 = fpext float %51 to double
  %53 = call i32 (ptr, ptr, ...) @fprintf(ptr noundef %49, ptr noundef @.str.15, double noundef %52) #5
  %54 = load ptr, ptr %4, align 8, !tbaa !23
  %55 = load i64, ptr getelementptr inbounds nuw (%struct.cinfo_tag, ptr @g_CoverInfo, i32 0, i32 19), align 8, !tbaa !44
  %56 = call float @TICKS_TO_SECONDS(i64 noundef %55)
  %57 = fpext float %56 to double
  %58 = call i32 (ptr, ptr, ...) @fprintf(ptr noundef %54, ptr noundef @.str.16, double noundef %57) #5
  %59 = load ptr, ptr %4, align 8, !tbaa !23
  %60 = load i32, ptr @g_CoverInfo, align 8, !tbaa !16
  %61 = call i32 (ptr, ptr, ...) @fprintf(ptr noundef %59, ptr noundef @.str.17, i32 noundef %60) #5
  %62 = load ptr, ptr %4, align 8, !tbaa !23
  %63 = load i32, ptr getelementptr inbounds nuw (%struct.cinfo_tag, ptr @g_CoverInfo, i32 0, i32 1), align 4, !tbaa !26
  %64 = call i32 (ptr, ptr, ...) @fprintf(ptr noundef %62, ptr noundef @.str.18, i32 noundef %63) #5
  %65 = load ptr, ptr %4, align 8, !tbaa !23
  %66 = load i32, ptr getelementptr inbounds nuw (%struct.cinfo_tag, ptr @g_CoverInfo, i32 0, i32 6), align 8, !tbaa !41
  %67 = call i32 (ptr, ptr, ...) @fprintf(ptr noundef %65, ptr noundef @.str.19, i32 noundef %66) #5
  %68 = load ptr, ptr %4, align 8, !tbaa !23
  %69 = call i32 (ptr, ptr, ...) @fprintf(ptr noundef %68, ptr noundef @.str.20) #5
  %70 = load ptr, ptr %4, align 8, !tbaa !23
  call void @WriteTableIntoFile(ptr noundef %70)
  %71 = load ptr, ptr %4, align 8, !tbaa !23
  %72 = call i32 (ptr, ptr, ...) @fprintf(ptr noundef %71, ptr noundef @.str.21) #5
  %73 = load ptr, ptr %4, align 8, !tbaa !23
  %74 = call i32 @fclose(ptr noundef %73)
  store i32 0, ptr %2, align 4
  store i32 1, ptr %7, align 4
  br label %75

75:                                               ; preds = %15, %12
  call void @llvm.lifetime.end.p0(i64 8, ptr %6) #5
  call void @llvm.lifetime.end.p0(i64 8, ptr %5) #5
  call void @llvm.lifetime.end.p0(i64 8, ptr %4) #5
  %76 = load i32, ptr %2, align 4
  ret i32 %76
}