; Function Attrs: nounwind uwtable
define range(i32 0, 2) i32 @WriteResultIntoFile(ptr noundef readonly captures(none) %0) local_unnamed_addr #0 {
  %2 = alloca i64, align 8
  call void @llvm.lifetime.start.p0(i64 8, ptr nonnull %2) #6
  %3 = tail call noalias ptr @fopen(ptr noundef %0, ptr noundef nonnull @.str.6)
  %4 = icmp eq ptr %3, null
  br i1 %4, label %5, label %8

5:                                                ; preds = %1
  %6 = load ptr, ptr @stderr, align 8, !tbaa !28
  %7 = tail call i64 @fwrite(ptr nonnull @.str.7, i64 30, i64 1, ptr %6) #7
  br label %74

8:                                                ; preds = %1
  %9 = call i64 @time(ptr noundef nonnull %2) #6
  %10 = call ptr @localtime(ptr noundef nonnull %2) #6
  %11 = call ptr @asctime(ptr noundef %10) #6
  %12 = call ptr (...) @IterCubeSetStart() #6
  %.not23.i = icmp eq ptr %12, null
  br i1 %.not23.i, label %CountLiteralsCheck.exit, label %.lr.ph28.i

.lr.ph28.i:                                       ; preds = %8, %._crit_edge.i
  %.026.i = phi i32 [ %16, %._crit_edge.i ], [ 0, %8 ]
  %.01625.i = phi i32 [ %.1.lcssa.i, %._crit_edge.i ], [ 0, %8 ]
  %.01824.i = phi ptr [ %28, %._crit_edge.i ], [ %12, %8 ]
  %13 = getelementptr inbounds nuw i8, ptr %.01824.i, i64 2
  %14 = load i16, ptr %13, align 2, !tbaa !3
  %15 = sext i16 %14 to i32
  %16 = add nsw i32 %.026.i, %15
  %17 = load i32, ptr @g_CoverInfo, align 8, !tbaa !13
  %18 = icmp sgt i32 %17, 0
  br i1 %18, label %.lr.ph.i, label %._crit_edge.i

.lr.ph.i:                                         ; preds = %.lr.ph28.i, %24
  %.122.i = phi i32 [ %.2.i, %24 ], [ %.01625.i, %.lr.ph28.i ]
  %.01721.i = phi i32 [ %25, %24 ], [ 0, %.lr.ph28.i ]
  %19 = call i32 @GetVar(ptr noundef nonnull %.01824.i, i32 noundef %.01721.i) #6
  switch i32 %19, label %24 [
    i32 1, label %20
    i32 2, label %22
  ]

20:                                               ; preds = %.lr.ph.i
  %21 = add nsw i32 %.122.i, 1
  br label %24

22:                                               ; preds = %.lr.ph.i
  %23 = add nsw i32 %.122.i, 1
  br label %24

24:                                               ; preds = %22, %20, %.lr.ph.i
  %.2.i = phi i32 [ %21, %20 ], [ %23, %22 ], [ %.122.i, %.lr.ph.i ]
  %25 = add nuw nsw i32 %.01721.i, 1
  %26 = load i32, ptr @g_CoverInfo, align 8, !tbaa !13
  %27 = icmp slt i32 %25, %26
  br i1 %27, label %.lr.ph.i, label %._crit_edge.i, !llvm.loop !17

._crit_edge.i:                                    ; preds = %24, %.lr.ph28.i
  %.1.lcssa.i = phi i32 [ %.01625.i, %.lr.ph28.i ], [ %.2.i, %24 ]
  %28 = call ptr (...) @IterCubeSetNext() #6
  %.not.i = icmp eq ptr %28, null
  br i1 %.not.i, label %._crit_edge29.i, label %.lr.ph28.i, !llvm.loop !18

._crit_edge29.i:                                  ; preds = %._crit_edge.i
  %.not20.i = icmp eq i32 %16, %.1.lcssa.i
  br i1 %.not20.i, label %CountLiteralsCheck.exit, label %29

29:                                               ; preds = %._crit_edge29.i
  %30 = call i32 (ptr, ...) @printf(ptr noundef nonnull dereferenceable(1) @.str, i32 noundef %16, i32 noundef %.1.lcssa.i)
  br label %CountLiteralsCheck.exit

CountLiteralsCheck.exit:                          ; preds = %8, %._crit_edge29.i, %29
  %.016.lcssa35.i = phi i32 [ %.1.lcssa.i, %29 ], [ %16, %._crit_edge29.i ], [ 0, %8 ]
  store i32 %.016.lcssa35.i, ptr getelementptr inbounds nuw (i8, ptr @g_CoverInfo, i64 36), align 4, !tbaa !30
  %31 = call ptr (...) @IterCubeSetStart() #6
  %.not7.i = icmp eq ptr %31, null
  br i1 %.not7.i, label %CountQCost.exit, label %.lr.ph.i21

.lr.ph.i21:                                       ; preds = %CountLiteralsCheck.exit, %.lr.ph.i21
  %.059.i = phi i32 [ %33, %.lr.ph.i21 ], [ 0, %CountLiteralsCheck.exit ]
  %.068.i = phi ptr [ %34, %.lr.ph.i21 ], [ %31, %CountLiteralsCheck.exit ]
  %32 = call i32 @ComputeQCostBits(ptr noundef nonnull %.068.i) #6
  %33 = add nsw i32 %32, %.059.i
  %34 = call ptr (...) @IterCubeSetNext() #6
  %.not.i22 = icmp eq ptr %34, null
  br i1 %.not.i22, label %CountQCost.exit, label %.lr.ph.i21, !llvm.loop !19

CountQCost.exit:                                  ; preds = %.lr.ph.i21, %CountLiteralsCheck.exit
  %.05.lcssa.i = phi i32 [ 0, %CountLiteralsCheck.exit ], [ %33, %.lr.ph.i21 ]
  store i32 %.05.lcssa.i, ptr getelementptr inbounds nuw (i8, ptr @g_CoverInfo, i64 44), align 4, !tbaa !31
  %35 = call i64 @fwrite(ptr nonnull @.str.8, i64 48, i64 1, ptr nonnull %3)
  %36 = load i32, ptr getelementptr inbounds nuw (i8, ptr @g_CoverInfo, i64 56), align 8, !tbaa !32
  %37 = load i32, ptr getelementptr inbounds nuw (i8, ptr @g_CoverInfo, i64 52), align 4, !tbaa !33
  %38 = call i32 (ptr, ptr, ...) @fprintf(ptr noundef nonnull %3, ptr noundef nonnull @.str.9, i32 noundef %36, i32 noundef %37) #6
  %39 = call i32 (ptr, ptr, ...) @fprintf(ptr noundef nonnull %3, ptr noundef nonnull @.str.10, ptr noundef %11) #6
  %40 = call i64 @fwrite(ptr nonnull @.str.11, i64 22, i64 1, ptr nonnull %3)
  %41 = load i32, ptr getelementptr inbounds nuw (i8, ptr @g_CoverInfo, i64 20), align 4, !tbaa !34
  %42 = load i32, ptr getelementptr inbounds nuw (i8, ptr @g_CoverInfo, i64 32), align 8, !tbaa !35
  %43 = load i32, ptr getelementptr inbounds nuw (i8, ptr @g_CoverInfo, i64 40), align 8, !tbaa !36
  %44 = call i32 (ptr, ptr, ...) @fprintf(ptr noundef nonnull %3, ptr noundef nonnull @.str.12, i32 noundef %41, i32 noundef %42, i32 noundef %43) #6
  %45 = call i64 @fwrite(ptr nonnull @.str.13, i64 22, i64 1, ptr nonnull %3)
  %46 = load i32, ptr getelementptr inbounds nuw (i8, ptr @g_CoverInfo, i64 24), align 8, !tbaa !37
  %47 = load i32, ptr getelementptr inbounds nuw (i8, ptr @g_CoverInfo, i64 36), align 4, !tbaa !30
  %48 = load i32, ptr getelementptr inbounds nuw (i8, ptr @g_CoverInfo, i64 44), align 4, !tbaa !31
  %49 = call i32 (ptr, ptr, ...) @fprintf(ptr noundef nonnull %3, ptr noundef nonnull @.str.12, i32 noundef %46, i32 noundef %47, i32 noundef %48) #6
  %50 = load i64, ptr getelementptr inbounds nuw (i8, ptr @g_CoverInfo, i64 72), align 8, !tbaa !38
  %51 = sitofp i64 %50 to float
  %52 = fdiv float %51, 1.000000e+06
  %53 = fpext float %52 to double
  %54 = call i32 (ptr, ptr, ...) @fprintf(ptr noundef nonnull %3, ptr noundef nonnull @.str.14, double noundef %53) #6
  %55 = load i64, ptr getelementptr inbounds nuw (i8, ptr @g_CoverInfo, i64 80), align 8, !tbaa !39
  %56 = sitofp i64 %55 to float
  %57 = fdiv float %56, 1.000000e+06
  %58 = fpext float %57 to double
  %59 = call i32 (ptr, ptr, ...) @fprintf(ptr noundef nonnull %3, ptr noundef nonnull @.str.15, double noundef %58) #6
  %60 = load i64, ptr getelementptr inbounds nuw (i8, ptr @g_CoverInfo, i64 88), align 8, !tbaa !40
  %61 = sitofp i64 %60 to float
  %62 = fdiv float %61, 1.000000e+06
  %63 = fpext float %62 to double
  %64 = call i32 (ptr, ptr, ...) @fprintf(ptr noundef nonnull %3, ptr noundef nonnull @.str.16, double noundef %63) #6
  %65 = load i32, ptr @g_CoverInfo, align 8, !tbaa !13
  %66 = call i32 (ptr, ptr, ...) @fprintf(ptr noundef nonnull %3, ptr noundef nonnull @.str.17, i32 noundef %65) #6
  %67 = load i32, ptr getelementptr inbounds nuw (i8, ptr @g_CoverInfo, i64 4), align 4, !tbaa !21
  %68 = call i32 (ptr, ptr, ...) @fprintf(ptr noundef nonnull %3, ptr noundef nonnull @.str.18, i32 noundef %67) #6
  %69 = load i32, ptr getelementptr inbounds nuw (i8, ptr @g_CoverInfo, i64 24), align 8, !tbaa !37
  %70 = call i32 (ptr, ptr, ...) @fprintf(ptr noundef nonnull %3, ptr noundef nonnull @.str.19, i32 noundef %69) #6
  %71 = call i64 @fwrite(ptr nonnull @.str.20, i64 11, i64 1, ptr nonnull %3)
  call void @WriteTableIntoFile(ptr noundef nonnull %3)
  %72 = call i64 @fwrite(ptr nonnull @.str.21, i64 3, i64 1, ptr nonnull %3)
  %73 = call i32 @fclose(ptr noundef nonnull %3)
  br label %74

74:                                               ; preds = %CountQCost.exit, %5
  %.0 = phi i32 [ 1, %5 ], [ 0, %CountQCost.exit ]
  call void @llvm.lifetime.end.p0(i64 8, ptr nonnull %2) #6
  ret i32 %.0
}